target datalayout = "e-m:e-p270:32:32-p271:32:32-p272:64:64-i64:64-i128:128-f80:128-n8:16:32:64-S128"
target triple = "x86_64-pc-linux-gnu"

@x = internal global i32 0, align 4
@preseed = internal global i32 0, align 4
@postseed = internal global i32 0, align 4

; Function Attrs: null_pointer_is_valid sspstrong uwtable
define hidden void @wmem_init_hashing() #0 {
  %1 = alloca i32, align 4
  %2 = alloca i32, align 4
  %3 = call i32 @g_random_int()
  store i32 %3, ptr @x, align 4
  call void @llvm.lifetime.start.p0(i64 4, ptr %1) #8
  %4 = load i32, ptr @x, align 4
  %5 = icmp eq i32 %4, 0
  br i1 %5, label %6, label %7

6:                                                ; preds = %0
  store i32 1, ptr %1, align 4
  br label %8

7:                                                ; preds = %0
  store i32 0, ptr %1, align 4
  br label %8

8:                                                ; preds = %7, %6
  %9 = load i32, ptr %1, align 4
  store i32 %9, ptr %2, align 4
  call void @llvm.lifetime.end.p0(i64 4, ptr %1) #8
  %10 = load i32, ptr %2, align 4
  %11 = sext i32 %10 to i64
  %12 = call i64 @llvm.expect.i64(i64 %11, i64 0)
  %13 = icmp ne i64 %12, 0
  br i1 %13, label %14, label %15

14:                                               ; preds = %8
  store i32 1, ptr @x, align 4
  br label %15

15:                                               ; preds = %14, %8
  %16 = call i32 @g_random_int()
  store i32 %16, ptr @preseed, align 4
  %17 = call i32 @g_random_int()
  store i32 %17, ptr @postseed, align 4
  ret void
}