; Function Attrs: null_pointer_is_valid sspstrong uwtable
define hidden void @wmem_init_hashing() local_unnamed_addr #0 {
  %1 = tail call i32 @g_random_int()
  %.not = icmp eq i32 %1, 0
  br i1 %.not, label %2, label %3, !prof !6

2:                                                ; preds = %0
  br label %3

3:                                                ; preds = %2, %0
  %storemerge = phi i32 [ 1, %2 ], [ %1, %0 ]
  store i32 %storemerge, ptr @x, align 4
  %4 = tail call i32 @g_random_int()
  store i32 %4, ptr @preseed, align 4
  %5 = tail call i32 @g_random_int()
  store i32 %5, ptr @postseed, align 4
  ret void
}